target datalayout = "e-m:e-p270:32:32-p271:32:32-p272:64:64-i64:64-i128:128-f80:128-n8:16:32:64-S128"
target triple = "x86_64-pc-linux-gnu"

%"class.google::protobuf::internal::LogMessage" = type { i32, ptr, i32, %"class.std::__cxx11::basic_string" }
%"class.std::__cxx11::basic_string" = type { %"struct.std::__cxx11::basic_string<char>::_Alloc_hider", i64, %union.anon }
%"struct.std::__cxx11::basic_string<char>::_Alloc_hider" = type { ptr }
%union.anon = type { i64, [8 x i8] }
%"class.google::protobuf::internal::LogFinisher" = type { i8 }
%"class.google::protobuf::io::ZeroCopyOutputStream" = type { ptr }
%"class.std::unique_ptr" = type { %"struct.std::__uniq_ptr_data" }
%"struct.std::__uniq_ptr_data" = type { %"class.std::__uniq_ptr_impl" }
%"class.std::__uniq_ptr_impl" = type { %"class.std::tuple" }
%"class.std::tuple" = type { %"struct.std::_Tuple_impl" }
%"struct.std::_Tuple_impl" = type { %"struct.std::_Head_base.1" }
%"struct.std::_Head_base.1" = type { ptr }
%"class.google::protobuf::io::CopyingOutputStreamAdaptor" = type { %"class.google::protobuf::io::ZeroCopyOutputStream", ptr, i8, i8, i64, %"class.std::unique_ptr", i32, i32 }

@.str = private unnamed_addr constant [162 x i8] c"generated/home/dtcxzyw/WorkSpace/Projects/compilers/llvm-opt-benchmark/bench/opencv/opencv/3rdparty/protobuf/src/google/protobuf/io/zero_copy_stream_impl_lite.cc\00", align 1
@.str.4 = private unnamed_addr constant [31 x i8] c"CHECK failed: (count) >= (0): \00", align 1
@.str.8 = private unnamed_addr constant [43 x i8] c" BackUp() can only be called after Next().\00", align 1
@.str.9 = private unnamed_addr constant [42 x i8] c"CHECK failed: (count) <= (buffer_used_): \00", align 1
@.str.10 = private unnamed_addr constant [78 x i8] c" Can't back up over more bytes than were returned by the last call to Next().\00", align 1
@.str.13 = private unnamed_addr constant [49 x i8] c"CHECK failed: (buffer_used_) == (buffer_size_): \00", align 1

; Function Attrs: mustprogress uwtable
define hidden void @_ZN6google8protobuf2io26CopyingOutputStreamAdaptor6BackUpEi(ptr noundef nonnull align 8 dereferenceable(48) %0, i32 noundef %1) unnamed_addr #4 align 2 personality ptr @__gxx_personality_v0 {
  %3 = alloca ptr, align 8
  %4 = alloca i32, align 4
  %5 = alloca %"class.google::protobuf::internal::LogMessage", align 8
  %6 = alloca i1, align 1
  %7 = alloca i1, align 1
  %8 = alloca ptr, align 8
  %9 = alloca i32, align 4
  %10 = alloca %"class.google::protobuf::internal::LogFinisher", align 1
  %11 = alloca %"class.google::protobuf::internal::LogMessage", align 8
  %12 = alloca i1, align 1
  %13 = alloca i1, align 1
  %14 = alloca %"class.google::protobuf::internal::LogFinisher", align 1
  %15 = alloca %"class.google::protobuf::internal::LogMessage", align 8
  %16 = alloca i1, align 1
  %17 = alloca i1, align 1
  %18 = alloca %"class.google::protobuf::internal::LogFinisher", align 1
  store ptr %0, ptr %3, align 8, !tbaa !82
  store i32 %1, ptr %4, align 4, !tbaa !9
  %19 = load ptr, ptr %3, align 8
  %20 = load i32, ptr %4, align 4, !tbaa !9
  %21 = icmp sge i32 %20, 0
  store i1 false, ptr %6, align 1
  store i1 false, ptr %7, align 1
  call void @llvm.lifetime.start.p0(i64 1, ptr %10) #3
  br i1 %21, label %22, label %23

22:                                               ; preds = %2
  br label %27

23:                                               ; preds = %2
  call void @llvm.lifetime.start.p0(i64 56, ptr %5) #3
  store i1 true, ptr %6, align 1
  call void @_ZN6google8protobuf8internal10LogMessageC1ENS0_8LogLevelEPKci(ptr noundef nonnull align 8 dereferenceable(56) %5, i32 noundef 3, ptr noundef @.str, i32 noundef 331)
  store i1 true, ptr %7, align 1
  %24 = invoke noundef nonnull align 8 dereferenceable(56) ptr @_ZN6google8protobuf8internal10LogMessagelsEPKc(ptr noundef nonnull align 8 dereferenceable(56) %5, ptr noundef @.str.4)
          to label %25 unwind label %75

25:                                               ; preds = %23
  invoke void @_ZN6google8protobuf8internal11LogFinisheraSERNS1_10LogMessageE(ptr noundef nonnull align 1 dereferenceable(1) %10, ptr noundef nonnull align 8 dereferenceable(56) %24)
          to label %26 unwind label %79

26:                                               ; preds = %25
  br label %27

27:                                               ; preds = %26, %22
  call void @llvm.lifetime.end.p0(i64 1, ptr %10) #3
  %28 = load i1, ptr %7, align 1
  br i1 %28, label %29, label %30

29:                                               ; preds = %27
  call void @_ZN6google8protobuf8internal10LogMessageD1Ev(ptr noundef nonnull align 8 dereferenceable(56) %5) #3
  br label %30

30:                                               ; preds = %29, %27
  %31 = load i1, ptr %6, align 1
  br i1 %31, label %32, label %33

32:                                               ; preds = %30
  call void @llvm.lifetime.end.p0(i64 56, ptr %5) #3
  br label %33

33:                                               ; preds = %32, %30
  %34 = getelementptr inbounds nuw %"class.google::protobuf::io::CopyingOutputStreamAdaptor", ptr %19, i32 0, i32 7
  %35 = load i32, ptr %34, align 4, !tbaa !92
  %36 = getelementptr inbounds nuw %"class.google::protobuf::io::CopyingOutputStreamAdaptor", ptr %19, i32 0, i32 6
  %37 = load i32, ptr %36, align 8, !tbaa !91
  %38 = icmp eq i32 %35, %37
  store i1 false, ptr %12, align 1
  store i1 false, ptr %13, align 1
  call void @llvm.lifetime.start.p0(i64 1, ptr %14) #3
  br i1 %38, label %39, label %40

39:                                               ; preds = %33
  br label %46

40:                                               ; preds = %33
  call void @llvm.lifetime.start.p0(i64 56, ptr %11) #3
  store i1 true, ptr %12, align 1
  call void @_ZN6google8protobuf8internal10LogMessageC1ENS0_8LogLevelEPKci(ptr noundef nonnull align 8 dereferenceable(56) %11, i32 noundef 3, ptr noundef @.str, i32 noundef 332)
  store i1 true, ptr %13, align 1
  %41 = invoke noundef nonnull align 8 dereferenceable(56) ptr @_ZN6google8protobuf8internal10LogMessagelsEPKc(ptr noundef nonnull align 8 dereferenceable(56) %11, ptr noundef @.str.13)
          to label %42 unwind label %90

42:                                               ; preds = %40
  %43 = invoke noundef nonnull align 8 dereferenceable(56) ptr @_ZN6google8protobuf8internal10LogMessagelsEPKc(ptr noundef nonnull align 8 dereferenceable(56) %41, ptr noundef @.str.8)
          to label %44 unwind label %90

44:                                               ; preds = %42
  invoke void @_ZN6google8protobuf8internal11LogFinisheraSERNS1_10LogMessageE(ptr noundef nonnull align 1 dereferenceable(1) %14, ptr noundef nonnull align 8 dereferenceable(56) %43)
          to label %45 unwind label %94

45:                                               ; preds = %44
  br label %46

46:                                               ; preds = %45, %39
  call void @llvm.lifetime.end.p0(i64 1, ptr %14) #3
  %47 = load i1, ptr %13, align 1
  br i1 %47, label %48, label %49

48:                                               ; preds = %46
  call void @_ZN6google8protobuf8internal10LogMessageD1Ev(ptr noundef nonnull align 8 dereferenceable(56) %11) #3
  br label %49

49:                                               ; preds = %48, %46
  %50 = load i1, ptr %12, align 1
  br i1 %50, label %51, label %52

51:                                               ; preds = %49
  call void @llvm.lifetime.end.p0(i64 56, ptr %11) #3
  br label %52

52:                                               ; preds = %51, %49
  %53 = load i32, ptr %4, align 4, !tbaa !9
  %54 = getelementptr inbounds nuw %"class.google::protobuf::io::CopyingOutputStreamAdaptor", ptr %19, i32 0, i32 7
  %55 = load i32, ptr %54, align 4, !tbaa !92
  %56 = icmp sle i32 %53, %55
  store i1 false, ptr %16, align 1
  store i1 false, ptr %17, align 1
  call void @llvm.lifetime.start.p0(i64 1, ptr %18) #3
  br i1 %56, label %57, label %58

57:                                               ; preds = %52
  br label %64

58:                                               ; preds = %52
  call void @llvm.lifetime.start.p0(i64 56, ptr %15) #3
  store i1 true, ptr %16, align 1
  call void @_ZN6google8protobuf8internal10LogMessageC1ENS0_8LogLevelEPKci(ptr noundef nonnull align 8 dereferenceable(56) %15, i32 noundef 3, ptr noundef @.str, i32 noundef 334)
  store i1 true, ptr %17, align 1
  %59 = invoke noundef nonnull align 8 dereferenceable(56) ptr @_ZN6google8protobuf8internal10LogMessagelsEPKc(ptr noundef nonnull align 8 dereferenceable(56) %15, ptr noundef @.str.9)
          to label %60 unwind label %105

60:                                               ; preds = %58
  %61 = invoke noundef nonnull align 8 dereferenceable(56) ptr @_ZN6google8protobuf8internal10LogMessagelsEPKc(ptr noundef nonnull align 8 dereferenceable(56) %59, ptr noundef @.str.10)
          to label %62 unwind label %105

62:                                               ; preds = %60
  invoke void @_ZN6google8protobuf8internal11LogFinisheraSERNS1_10LogMessageE(ptr noundef nonnull align 1 dereferenceable(1) %18, ptr noundef nonnull align 8 dereferenceable(56) %61)
          to label %63 unwind label %109

63:                                               ; preds = %62
  br label %64

64:                                               ; preds = %63, %57
  call void @llvm.lifetime.end.p0(i64 1, ptr %18) #3
  %65 = load i1, ptr %17, align 1
  br i1 %65, label %66, label %67

66:                                               ; preds = %64
  call void @_ZN6google8protobuf8internal10LogMessageD1Ev(ptr noundef nonnull align 8 dereferenceable(56) %15) #3
  br label %67

67:                                               ; preds = %66, %64
  %68 = load i1, ptr %16, align 1
  br i1 %68, label %69, label %70

69:                                               ; preds = %67
  call void @llvm.lifetime.end.p0(i64 56, ptr %15) #3
  br label %70

70:                                               ; preds = %69, %67
  %71 = load i32, ptr %4, align 4, !tbaa !9
  %72 = getelementptr inbounds nuw %"class.google::protobuf::io::CopyingOutputStreamAdaptor", ptr %19, i32 0, i32 7
  %73 = load i32, ptr %72, align 4, !tbaa !92
  %74 = sub nsw i32 %73, %71
  store i32 %74, ptr %72, align 4, !tbaa !92
  ret void

75:                                               ; preds = %23
  %76 = landingpad { ptr, i32 }
          cleanup
  %77 = extractvalue { ptr, i32 } %76, 0
  store ptr %77, ptr %8, align 8
  %78 = extractvalue { ptr, i32 } %76, 1
  store i32 %78, ptr %9, align 4
  br label %83

79:                                               ; preds = %25
  %80 = landingpad { ptr, i32 }
          cleanup
  %81 = extractvalue { ptr, i32 } %80, 0
  store ptr %81, ptr %8, align 8
  %82 = extractvalue { ptr, i32 } %80, 1
  store i32 %82, ptr %9, align 4
  call void @llvm.lifetime.end.p0(i64 1, ptr %10) #3
  br label %83

83:                                               ; preds = %79, %75
  %84 = load i1, ptr %7, align 1
  br i1 %84, label %85, label %86

85:                                               ; preds = %83
  call void @_ZN6google8protobuf8internal10LogMessageD1Ev(ptr noundef nonnull align 8 dereferenceable(56) %5) #3
  br label %86

86:                                               ; preds = %85, %83
  %87 = load i1, ptr %6, align 1
  br i1 %87, label %88, label %89

88:                                               ; preds = %86
  call void @llvm.lifetime.end.p0(i64 56, ptr %5) #3
  br label %89

89:                                               ; preds = %88, %86
  br label %120

90:                                               ; preds = %42, %40
  %91 = landingpad { ptr, i32 }
          cleanup
  %92 = extractvalue { ptr, i32 } %91, 0
  store ptr %92, ptr %8, align 8
  %93 = extractvalue { ptr, i32 } %91, 1
  store i32 %93, ptr %9, align 4
  br label %98

94:                                               ; preds = %44
  %95 = landingpad { ptr, i32 }
          cleanup
  %96 = extractvalue { ptr, i32 } %95, 0
  store ptr %96, ptr %8, align 8
  %97 = extractvalue { ptr, i32 } %95, 1
  store i32 %97, ptr %9, align 4
  call void @llvm.lifetime.end.p0(i64 1, ptr %14) #3
  br label %98

98:                                               ; preds = %94, %90
  %99 = load i1, ptr %13, align 1
  br i1 %99, label %100, label %101

100:                                              ; preds = %98
  call void @_ZN6google8protobuf8internal10LogMessageD1Ev(ptr noundef nonnull align 8 dereferenceable(56) %11) #3
  br label %101

101:                                              ; preds = %100, %98
  %102 = load i1, ptr %12, align 1
  br i1 %102, label %103, label %104

103:                                              ; preds = %101
  call void @llvm.lifetime.end.p0(i64 56, ptr %11) #3
  br label %104

104:                                              ; preds = %103, %101
  br label %120

105:                                              ; preds = %60, %58
  %106 = landingpad { ptr, i32 }
          cleanup
  %107 = extractvalue { ptr, i32 } %106, 0
  store ptr %107, ptr %8, align 8
  %108 = extractvalue { ptr, i32 } %106, 1
  store i32 %108, ptr %9, align 4
  br label %113

109:                                              ; preds = %62
  %110 = landingpad { ptr, i32 }
          cleanup
  %111 = extractvalue { ptr, i32 } %110, 0
  store ptr %111, ptr %8, align 8
  %112 = extractvalue { ptr, i32 } %110, 1
  store i32 %112, ptr %9, align 4
  call void @llvm.lifetime.end.p0(i64 1, ptr %18) #3
  br label %113

113:                                              ; preds = %109, %105
  %114 = load i1, ptr %17, align 1
  br i1 %114, label %115, label %116

115:                                              ; preds = %113
  call void @_ZN6google8protobuf8internal10LogMessageD1Ev(ptr noundef nonnull align 8 dereferenceable(56) %15) #3
  br label %116

116:                                              ; preds = %115, %113
  %117 = load i1, ptr %16, align 1
  br i1 %117, label %118, label %119

118:                                              ; preds = %116
  call void @llvm.lifetime.end.p0(i64 56, ptr %15) #3
  br label %119

119:                                              ; preds = %118, %116
  br label %120

120:                                              ; preds = %119, %104, %89
  %121 = load ptr, ptr %8, align 8
  %122 = load i32, ptr %9, align 4
  %123 = insertvalue { ptr, i32 } poison, ptr %121, 0
  %124 = insertvalue { ptr, i32 } %123, i32 %122, 1
  resume { ptr, i32 } %124
}