; Function Attrs: mustprogress uwtable
define hidden void @_ZN6google8protobuf2io26CopyingOutputStreamAdaptor6BackUpEi(ptr noundef nonnull align 8 captures(none) dereferenceable(48) %0, i32 noundef %1) unnamed_addr #6 align 2 personality ptr @__gxx_personality_v0 {
  %3 = alloca %"class.google::protobuf::internal::LogMessage", align 8
  %4 = alloca %"class.google::protobuf::internal::LogFinisher", align 1
  %5 = alloca %"class.google::protobuf::internal::LogMessage", align 8
  %6 = alloca %"class.google::protobuf::internal::LogFinisher", align 1
  %7 = alloca %"class.google::protobuf::internal::LogMessage", align 8
  %8 = alloca %"class.google::protobuf::internal::LogFinisher", align 1
  %9 = icmp slt i32 %1, 0
  call void @llvm.lifetime.start.p0(i64 1, ptr nonnull %4) #19
  br i1 %9, label %10, label %13

10:                                               ; preds = %2
  call void @llvm.lifetime.start.p0(i64 56, ptr nonnull %3) #19
  call void @_ZN6google8protobuf8internal10LogMessageC1ENS0_8LogLevelEPKci(ptr noundef nonnull align 8 dereferenceable(56) %3, i32 noundef 3, ptr noundef nonnull @.str, i32 noundef 331)
  %11 = invoke noundef nonnull align 8 dereferenceable(56) ptr @_ZN6google8protobuf8internal10LogMessagelsEPKc(ptr noundef nonnull align 8 dereferenceable(56) %3, ptr noundef nonnull @.str.4)
          to label %12 unwind label %35

12:                                               ; preds = %10
  invoke void @_ZN6google8protobuf8internal11LogFinisheraSERNS1_10LogMessageE(ptr noundef nonnull align 1 dereferenceable(1) %4, ptr noundef nonnull align 8 dereferenceable(56) %11)
          to label %14 unwind label %37

13:                                               ; preds = %2
  call void @llvm.lifetime.end.p0(i64 1, ptr nonnull %4) #19
  br label %.critedge35

14:                                               ; preds = %12
  call void @llvm.lifetime.end.p0(i64 1, ptr nonnull %4) #19
  call void @_ZN6google8protobuf8internal10LogMessageD1Ev(ptr noundef nonnull align 8 dereferenceable(56) %3) #19
  call void @llvm.lifetime.end.p0(i64 56, ptr nonnull %3) #19
  br label %.critedge35

.critedge35:                                      ; preds = %13, %14
  %15 = getelementptr inbounds nuw i8, ptr %0, i64 44
  %16 = load i32, ptr %15, align 4, !tbaa !61
  %17 = getelementptr inbounds nuw i8, ptr %0, i64 40
  %18 = load i32, ptr %17, align 8, !tbaa !60
  %.not = icmp eq i32 %16, %18
  call void @llvm.lifetime.start.p0(i64 1, ptr nonnull %6) #19
  br i1 %.not, label %.thread44, label %19

19:                                               ; preds = %.critedge35
  call void @llvm.lifetime.start.p0(i64 56, ptr nonnull %5) #19
  call void @_ZN6google8protobuf8internal10LogMessageC1ENS0_8LogLevelEPKci(ptr noundef nonnull align 8 dereferenceable(56) %5, i32 noundef 3, ptr noundef nonnull @.str, i32 noundef 332)
  %20 = invoke noundef nonnull align 8 dereferenceable(56) ptr @_ZN6google8protobuf8internal10LogMessagelsEPKc(ptr noundef nonnull align 8 dereferenceable(56) %5, ptr noundef nonnull @.str.13)
          to label %21 unwind label %40

21:                                               ; preds = %19
  %22 = invoke noundef nonnull align 8 dereferenceable(56) ptr @_ZN6google8protobuf8internal10LogMessagelsEPKc(ptr noundef nonnull align 8 dereferenceable(56) %20, ptr noundef nonnull @.str.8)
          to label %23 unwind label %40

23:                                               ; preds = %21
  invoke void @_ZN6google8protobuf8internal11LogFinisheraSERNS1_10LogMessageE(ptr noundef nonnull align 1 dereferenceable(1) %6, ptr noundef nonnull align 8 dereferenceable(56) %22)
          to label %24 unwind label %42

.thread44:                                        ; preds = %.critedge35
  call void @llvm.lifetime.end.p0(i64 1, ptr nonnull %6) #19
  br label %.critedge39

24:                                               ; preds = %23
  call void @llvm.lifetime.end.p0(i64 1, ptr nonnull %6) #19
  call void @_ZN6google8protobuf8internal10LogMessageD1Ev(ptr noundef nonnull align 8 dereferenceable(56) %5) #19
  call void @llvm.lifetime.end.p0(i64 56, ptr nonnull %5) #19
  %.pre = load i32, ptr %15, align 4, !tbaa !61
  br label %.critedge39

.critedge39:                                      ; preds = %.thread44, %24
  %25 = phi i32 [ %16, %.thread44 ], [ %.pre, %24 ]
  %.not30 = icmp sgt i32 %1, %25
  call void @llvm.lifetime.start.p0(i64 1, ptr nonnull %8) #19
  br i1 %.not30, label %26, label %31

26:                                               ; preds = %.critedge39
  call void @llvm.lifetime.start.p0(i64 56, ptr nonnull %7) #19
  call void @_ZN6google8protobuf8internal10LogMessageC1ENS0_8LogLevelEPKci(ptr noundef nonnull align 8 dereferenceable(56) %7, i32 noundef 3, ptr noundef nonnull @.str, i32 noundef 334)
  %27 = invoke noundef nonnull align 8 dereferenceable(56) ptr @_ZN6google8protobuf8internal10LogMessagelsEPKc(ptr noundef nonnull align 8 dereferenceable(56) %7, ptr noundef nonnull @.str.9)
          to label %28 unwind label %45

28:                                               ; preds = %26
  %29 = invoke noundef nonnull align 8 dereferenceable(56) ptr @_ZN6google8protobuf8internal10LogMessagelsEPKc(ptr noundef nonnull align 8 dereferenceable(56) %27, ptr noundef nonnull @.str.10)
          to label %30 unwind label %45

30:                                               ; preds = %28
  invoke void @_ZN6google8protobuf8internal11LogFinisheraSERNS1_10LogMessageE(ptr noundef nonnull align 1 dereferenceable(1) %8, ptr noundef nonnull align 8 dereferenceable(56) %29)
          to label %32 unwind label %47

31:                                               ; preds = %.critedge39
  call void @llvm.lifetime.end.p0(i64 1, ptr nonnull %8) #19
  br label %.critedge43

32:                                               ; preds = %30
  call void @llvm.lifetime.end.p0(i64 1, ptr nonnull %8) #19
  call void @_ZN6google8protobuf8internal10LogMessageD1Ev(ptr noundef nonnull align 8 dereferenceable(56) %7) #19
  call void @llvm.lifetime.end.p0(i64 56, ptr nonnull %7) #19
  %.pre46 = load i32, ptr %15, align 4, !tbaa !61
  br label %.critedge43

.critedge43:                                      ; preds = %31, %32
  %33 = phi i32 [ %25, %31 ], [ %.pre46, %32 ]
  %34 = sub nsw i32 %33, %1
  store i32 %34, ptr %15, align 4, !tbaa !61
  ret void

35:                                               ; preds = %10
  %36 = landingpad { ptr, i32 }
          cleanup
  br label %39

37:                                               ; preds = %12
  %38 = landingpad { ptr, i32 }
          cleanup
  call void @llvm.lifetime.end.p0(i64 1, ptr nonnull %4) #19
  br label %39

39:                                               ; preds = %35, %37
  %.pn = phi { ptr, i32 } [ %38, %37 ], [ %36, %35 ]
  call void @_ZN6google8protobuf8internal10LogMessageD1Ev(ptr noundef nonnull align 8 dereferenceable(56) %3) #19
  call void @llvm.lifetime.end.p0(i64 56, ptr nonnull %3) #19
  br label %50

40:                                               ; preds = %21, %19
  %41 = landingpad { ptr, i32 }
          cleanup
  br label %44

42:                                               ; preds = %23
  %43 = landingpad { ptr, i32 }
          cleanup
  call void @llvm.lifetime.end.p0(i64 1, ptr nonnull %6) #19
  br label %44

44:                                               ; preds = %40, %42
  %.pn28 = phi { ptr, i32 } [ %43, %42 ], [ %41, %40 ]
  call void @_ZN6google8protobuf8internal10LogMessageD1Ev(ptr noundef nonnull align 8 dereferenceable(56) %5) #19
  call void @llvm.lifetime.end.p0(i64 56, ptr nonnull %5) #19
  br label %50

45:                                               ; preds = %28, %26
  %46 = landingpad { ptr, i32 }
          cleanup
  br label %49

47:                                               ; preds = %30
  %48 = landingpad { ptr, i32 }
          cleanup
  call void @llvm.lifetime.end.p0(i64 1, ptr nonnull %8) #19
  br label %49

49:                                               ; preds = %45, %47
  %.pn31 = phi { ptr, i32 } [ %48, %47 ], [ %46, %45 ]
  call void @_ZN6google8protobuf8internal10LogMessageD1Ev(ptr noundef nonnull align 8 dereferenceable(56) %7) #19
  call void @llvm.lifetime.end.p0(i64 56, ptr nonnull %7) #19
  br label %50

50:                                               ; preds = %49, %44, %39
  %.pn31.pn = phi { ptr, i32 } [ %.pn31, %49 ], [ %.pn28, %44 ], [ %.pn, %39 ]
  resume { ptr, i32 } %.pn31.pn
}